; Function Attrs: mustprogress nounwind uwtable
define internal fastcc void @_ZN7testing8internal10linked_ptrINS0_25ParameterizedTestCaseInfoIN11opencv_test12_GLOBAL__N_143DenseOpticalFlow_VariationalRefinement_perfEE8TestInfoEED2Ev(ptr noundef nonnull readonly align 8 dereferenceable(16) %0) unnamed_addr #6 align 2 personality ptr @__gxx_personality_v0 {
  %2 = getelementptr inbounds i8, ptr %0, i64 8
  invoke void @_ZN7testing8internal9MutexBase4LockEv(ptr noundef nonnull align 8 dereferenceable(56) @_ZN7testing8internal18g_linked_ptr_mutexE)
          to label %.noexc unwind label %31

.noexc:                                           ; preds = %1
  %3 = load ptr, ptr %2, align 8
  %4 = icmp eq ptr %3, %2
  br i1 %4, label %7, label %.preheader.i.i

.preheader.i.i:                                   ; preds = %.noexc, %.preheader.i.i
  %.0.i.i = phi ptr [ %5, %.preheader.i.i ], [ %3, %.noexc ]
  %5 = load ptr, ptr %.0.i.i, align 8
  %.not.i.i = icmp eq ptr %5, %2
  br i1 %.not.i.i, label %6, label %.preheader.i.i, !llvm.loop !10

6:                                                ; preds = %.preheader.i.i
  store ptr %3, ptr %.0.i.i, align 8
  br label %7

7:                                                ; preds = %6, %.noexc
  invoke void @_ZN7testing8internal9MutexBase6UnlockEv(ptr noundef nonnull align 8 dereferenceable(56) @_ZN7testing8internal18g_linked_ptr_mutexE)
          to label %_ZN7testing8internal19linked_ptr_internal6departEv.exit.i unwind label %8

8:                                                ; preds = %7
  %9 = landingpad { ptr, i32 }
          catch ptr null
  %10 = extractvalue { ptr, i32 } %9, 0
  tail call void @__clang_call_terminate(ptr %10) #25
  unreachable

_ZN7testing8internal19linked_ptr_internal6departEv.exit.i: ; preds = %7
  br i1 %4, label %11, label %_ZN7testing8internal10linked_ptrINS0_25ParameterizedTestCaseInfoIN11opencv_test12_GLOBAL__N_143DenseOpticalFlow_VariationalRefinement_perfEE8TestInfoEE6departEv.exit

11:                                               ; preds = %_ZN7testing8internal19linked_ptr_internal6departEv.exit.i
  %12 = load ptr, ptr %0, align 8
  %13 = icmp eq ptr %12, null
  br i1 %13, label %_ZN7testing8internal10linked_ptrINS0_25ParameterizedTestCaseInfoIN11opencv_test12_GLOBAL__N_143DenseOpticalFlow_VariationalRefinement_perfEE8TestInfoEE6departEv.exit, label %14

14:                                               ; preds = %11
  %15 = getelementptr inbounds i8, ptr %12, i64 64
  %16 = load ptr, ptr %15, align 8
  %.not.i.i.i.i = icmp eq ptr %16, null
  br i1 %.not.i.i.i.i, label %_ZN7testing8internal25ParameterizedTestCaseInfoIN11opencv_test12_GLOBAL__N_143DenseOpticalFlow_VariationalRefinement_perfEE8TestInfoD2Ev.exit.i, label %17

17:                                               ; preds = %14
  %18 = invoke noundef zeroext i1 @_ZN7testing8internal6IsTrueEb(i1 noundef zeroext true)
          to label %.noexc.i.i.i unwind label %27

.noexc.i.i.i:                                     ; preds = %17
  br i1 %18, label %19, label %26

19:                                               ; preds = %.noexc.i.i.i
  %20 = load ptr, ptr %15, align 8
  %21 = icmp eq ptr %20, null
  br i1 %21, label %26, label %22

22:                                               ; preds = %19
  %23 = load ptr, ptr %20, align 8
  %24 = getelementptr inbounds i8, ptr %23, i64 8
  %25 = load ptr, ptr %24, align 8
  tail call void %25(ptr noundef nonnull align 8 dereferenceable(8) %20) #24
  br label %26

26:                                               ; preds = %22, %19, %.noexc.i.i.i
  store ptr null, ptr %15, align 8
  br label %_ZN7testing8internal25ParameterizedTestCaseInfoIN11opencv_test12_GLOBAL__N_143DenseOpticalFlow_VariationalRefinement_perfEE8TestInfoD2Ev.exit.i

27:                                               ; preds = %17
  %28 = landingpad { ptr, i32 }
          catch ptr null
  %29 = extractvalue { ptr, i32 } %28, 0
  tail call void @__clang_call_terminate(ptr %29) #25
  unreachable

_ZN7testing8internal25ParameterizedTestCaseInfoIN11opencv_test12_GLOBAL__N_143DenseOpticalFlow_VariationalRefinement_perfEE8TestInfoD2Ev.exit.i: ; preds = %26, %14
  %30 = getelementptr inbounds i8, ptr %12, i64 32
  tail call void @_ZNSt7__cxx1112basic_stringIcSt11char_traitsIcESaIcEED1Ev(ptr noundef nonnull align 8 dereferenceable(32) %30) #24
  tail call void @_ZNSt7__cxx1112basic_stringIcSt11char_traitsIcESaIcEED1Ev(ptr noundef nonnull align 8 dereferenceable(32) %12) #24
  tail call void @_ZdlPv(ptr noundef nonnull %12) #28
  br label %_ZN7testing8internal10linked_ptrINS0_25ParameterizedTestCaseInfoIN11opencv_test12_GLOBAL__N_143DenseOpticalFlow_VariationalRefinement_perfEE8TestInfoEE6departEv.exit

_ZN7testing8internal10linked_ptrINS0_25ParameterizedTestCaseInfoIN11opencv_test12_GLOBAL__N_143DenseOpticalFlow_VariationalRefinement_perfEE8TestInfoEE6departEv.exit: ; preds = %_ZN7testing8internal25ParameterizedTestCaseInfoIN11opencv_test12_GLOBAL__N_143DenseOpticalFlow_VariationalRefinement_perfEE8TestInfoD2Ev.exit.i, %11, %_ZN7testing8internal19linked_ptr_internal6departEv.exit.i
  ret void

31:                                               ; preds = %1
  %32 = landingpad { ptr, i32 }
          catch ptr null
  %33 = extractvalue { ptr, i32 } %32, 0
  tail call void @__clang_call_terminate(ptr %33) #25
  unreachable
}